; Function Attrs: nounwind uwtable
define hidden range(i32 0, 2) i32 @BN_sub(ptr noundef %0, ptr noundef %1, ptr noundef %2) local_unnamed_addr #0 {
  %4 = getelementptr inbounds nuw i8, ptr %1, i64 16
  %5 = load i32, ptr %4, align 8, !tbaa !6
  %.not = icmp eq i32 %5, 0
  %6 = getelementptr inbounds nuw i8, ptr %2, i64 16
  %7 = load i32, ptr %6, align 8, !tbaa !6
  %.not34 = icmp eq i32 %7, 0
  br i1 %.not, label %9, label %8

8:                                                ; preds = %3
  br i1 %.not34, label %10, label %46

9:                                                ; preds = %3
  br i1 %.not34, label %46, label %10

10:                                               ; preds = %8, %9
  %.02848 = phi i32 [ 1, %8 ], [ 0, %9 ]
  %11 = getelementptr inbounds nuw i8, ptr %1, i64 8
  %12 = load i32, ptr %11, align 8, !tbaa !13
  %13 = getelementptr inbounds nuw i8, ptr %2, i64 8
  %14 = load i32, ptr %13, align 8, !tbaa !13
  %15 = icmp slt i32 %12, %14
  %spec.select.i = select i1 %15, ptr %1, ptr %2
  %spec.select62.i = select i1 %15, ptr %2, ptr %1
  %16 = getelementptr inbounds nuw i8, ptr %spec.select62.i, i64 8
  %17 = load i32, ptr %16, align 8, !tbaa !13
  %18 = getelementptr inbounds nuw i8, ptr %spec.select.i, i64 8
  %19 = load i32, ptr %18, align 8, !tbaa !13
  %20 = add nsw i32 %17, 1
  %21 = sext i32 %20 to i64
  %22 = tail call ptr @bn_wexpand(ptr noundef %0, i64 noundef %21) #4
  %23 = icmp eq ptr %22, null
  br i1 %23, label %BN_uadd.exit.thread, label %24

24:                                               ; preds = %10
  %25 = sub nsw i32 %17, %19
  %26 = getelementptr inbounds nuw i8, ptr %0, i64 8
  store i32 %17, ptr %26, align 8, !tbaa !13
  %27 = load ptr, ptr %spec.select62.i, align 8, !tbaa !14
  %28 = load ptr, ptr %spec.select.i, align 8, !tbaa !14
  %29 = load ptr, ptr %0, align 8, !tbaa !14
  %30 = tail call i64 @bn_add_words(ptr noundef %29, ptr noundef %27, ptr noundef %28, i32 noundef %19) #4
  %31 = sext i32 %19 to i64
  %32 = getelementptr inbounds i64, ptr %29, i64 %31
  %33 = getelementptr inbounds i64, ptr %27, i64 %31
  %.not.i = icmp eq i64 %30, 0
  br i1 %.not.i, label %.loopexit77.i, label %.preheader76.i

.preheader76.i:                                   ; preds = %24, %34
  %.153.i = phi ptr [ %36, %34 ], [ %33, %24 ]
  %.149.i = phi i32 [ %35, %34 ], [ %25, %24 ]
  %.1.i = phi ptr [ %39, %34 ], [ %32, %24 ]
  %.not56.not.i = icmp eq i32 %.149.i, 0
  br i1 %.not56.not.i, label %.thread69.i, label %34

34:                                               ; preds = %.preheader76.i
  %35 = add nsw i32 %.149.i, -1
  %36 = getelementptr inbounds nuw i8, ptr %.153.i, i64 8
  %37 = load i64, ptr %.153.i, align 8, !tbaa !15
  %38 = add i64 %37, 1
  %39 = getelementptr inbounds nuw i8, ptr %.1.i, i64 8
  store i64 %38, ptr %.1.i, align 8, !tbaa !15
  %.not57.i = icmp eq i64 %38, 0
  br i1 %.not57.i, label %.preheader76.i, label %.loopexit77.i, !llvm.loop !17

.thread69.i:                                      ; preds = %.preheader76.i
  store i64 1, ptr %.1.i, align 8, !tbaa !15
  %40 = load i32, ptr %26, align 8, !tbaa !13
  %41 = add nsw i32 %40, 1
  store i32 %41, ptr %26, align 8, !tbaa !13
  br label %BN_uadd.exit.thread.sink.split

.loopexit77.i:                                    ; preds = %34, %24
  %.052.i = phi ptr [ %33, %24 ], [ %36, %34 ]
  %.048.i = phi i32 [ %25, %24 ], [ %35, %34 ]
  %.047.i = phi ptr [ %32, %24 ], [ %39, %34 ]
  %.not59.i = icmp eq i32 %.048.i, 0
  %.not60.i = icmp eq ptr %.047.i, %.052.i
  %or.cond.i = select i1 %.not59.i, i1 true, i1 %.not60.i
  br i1 %or.cond.i, label %BN_uadd.exit.thread.sink.split, label %.preheader.i

.preheader.i:                                     ; preds = %.loopexit77.i, %.preheader.i
  %.383.i = phi ptr [ %45, %.preheader.i ], [ %.047.i, %.loopexit77.i ]
  %.35182.i = phi i32 [ %42, %.preheader.i ], [ %.048.i, %.loopexit77.i ]
  %.35581.i = phi ptr [ %43, %.preheader.i ], [ %.052.i, %.loopexit77.i ]
  %42 = add nsw i32 %.35182.i, -1
  %43 = getelementptr inbounds nuw i8, ptr %.35581.i, i64 8
  %44 = load i64, ptr %.35581.i, align 8, !tbaa !15
  %45 = getelementptr inbounds nuw i8, ptr %.383.i, i64 8
  store i64 %44, ptr %.383.i, align 8, !tbaa !15
  %.not61.i = icmp eq i32 %42, 0
  br i1 %.not61.i, label %BN_uadd.exit.thread.sink.split, label %.preheader.i, !llvm.loop !19

46:                                               ; preds = %8, %9
  %.03046 = phi ptr [ %2, %8 ], [ %1, %9 ]
  %.03144 = phi ptr [ %1, %8 ], [ %2, %9 ]
  %47 = getelementptr inbounds nuw i8, ptr %.03046, i64 8
  %48 = load i32, ptr %47, align 8, !tbaa !13
  %49 = getelementptr inbounds nuw i8, ptr %.03144, i64 8
  %50 = load i32, ptr %49, align 8, !tbaa !13
  %.43 = tail call i32 @llvm.smax.i32(i32 %48, i32 %50)
  %51 = sext i32 %.43 to i64
  %52 = tail call ptr @bn_wexpand(ptr noundef %0, i64 noundef %51) #4
  %53 = icmp eq ptr %52, null
  br i1 %53, label %BN_uadd.exit.thread, label %54

54:                                               ; preds = %46
  %55 = tail call i32 @BN_ucmp(ptr noundef nonnull %.03046, ptr noundef nonnull %.03144) #4
  %56 = icmp slt i32 %55, 0
  br i1 %56, label %57, label %59

57:                                               ; preds = %54
  %58 = tail call i32 @BN_usub(ptr noundef %0, ptr noundef nonnull %.03144, ptr noundef nonnull %.03046)
  %.not38 = icmp eq i32 %58, 0
  br i1 %.not38, label %BN_uadd.exit.thread, label %BN_uadd.exit.thread.sink.split

59:                                               ; preds = %54
  %60 = tail call i32 @BN_usub(ptr noundef %0, ptr noundef nonnull %.03046, ptr noundef nonnull %.03144)
  %.not37 = icmp eq i32 %60, 0
  br i1 %.not37, label %BN_uadd.exit.thread, label %BN_uadd.exit.thread.sink.split

BN_uadd.exit.thread.sink.split:                   ; preds = %.preheader.i, %59, %57, %.thread69.i, %.loopexit77.i
  %.sink = phi i32 [ %.02848, %.loopexit77.i ], [ %.02848, %.thread69.i ], [ 1, %57 ], [ 0, %59 ], [ %.02848, %.preheader.i ]
  %61 = getelementptr inbounds nuw i8, ptr %0, i64 16
  store i32 %.sink, ptr %61, align 8, !tbaa !6
  br label %BN_uadd.exit.thread

BN_uadd.exit.thread:                              ; preds = %BN_uadd.exit.thread.sink.split, %10, %59, %57, %46
  %.0 = phi i32 [ 0, %46 ], [ 0, %57 ], [ 0, %59 ], [ 0, %10 ], [ 1, %BN_uadd.exit.thread.sink.split ]
  ret i32 %.0
}